target datalayout = "e-m:e-p270:32:32-p271:32:32-p272:64:64-i64:64-i128:128-f80:128-n8:16:32:64-S128"
target triple = "x86_64-pc-linux-gnu"

@.str.17 = private unnamed_addr constant [39 x i8] c"bad boolean config value '%s' for '%s'\00", align 1
@.str.196 = private unnamed_addr constant [36 x i8] c"sparse.expectfilesoutsideofpatterns\00", align 1
@sparse_expect_files_outside_of_patterns = external global i32, align 4

; Function Attrs: nounwind uwtable
define dso_local i32 @git_config_bool(ptr noundef %0, ptr noundef %1) #0 {
  %3 = alloca ptr, align 8
  %4 = alloca ptr, align 8
  %5 = alloca i32, align 4
  store ptr %0, ptr %3, align 8, !tbaa !4
  store ptr %1, ptr %4, align 8, !tbaa !4
  call void @llvm.lifetime.start.p0(i64 4, ptr %5) #13
  %6 = load ptr, ptr %4, align 8, !tbaa !4
  %7 = call i32 @git_parse_maybe_bool(ptr noundef %6)
  store i32 %7, ptr %5, align 4, !tbaa !13
  %8 = load i32, ptr %5, align 4, !tbaa !13
  %9 = icmp slt i32 %8, 0
  br i1 %9, label %10, label %14

10:                                               ; preds = %2
  %11 = call ptr @_(ptr noundef @.str.17)
  %12 = load ptr, ptr %4, align 8, !tbaa !4
  %13 = load ptr, ptr %3, align 8, !tbaa !4
  call void (ptr, ...) @die(ptr noundef %11, ptr noundef %12, ptr noundef %13) #15
  unreachable

14:                                               ; preds = %2
  %15 = load i32, ptr %5, align 4, !tbaa !13
  call void @llvm.lifetime.end.p0(i64 4, ptr %5) #13
  ret i32 %15
}

; Function Attrs: nounwind uwtable
define internal i32 @git_default_sparse_config(ptr noundef %0, ptr noundef %1) #0 {
  %3 = alloca i32, align 4
  %4 = alloca ptr, align 8
  %5 = alloca ptr, align 8
  store ptr %0, ptr %4, align 8, !tbaa !4
  store ptr %1, ptr %5, align 8, !tbaa !4
  %6 = load ptr, ptr %4, align 8, !tbaa !4
  %7 = call i32 @strcmp(ptr noundef %6, ptr noundef @.str.196) #14
  %8 = icmp ne i32 %7, 0
  br i1 %8, label %13, label %9

9:                                                ; preds = %2
  %10 = load ptr, ptr %4, align 8, !tbaa !4
  %11 = load ptr, ptr %5, align 8, !tbaa !4
  %12 = call i32 @git_config_bool(ptr noundef %10, ptr noundef %11)
  store i32 %12, ptr @sparse_expect_files_outside_of_patterns, align 4, !tbaa !13
  store i32 0, ptr %3, align 4
  br label %14

13:                                               ; preds = %2
  store i32 0, ptr %3, align 4
  br label %14

14:                                               ; preds = %13, %9
  %15 = load i32, ptr %3, align 4
  ret i32 %15
}