; Function Attrs: nounwind uwtable
define internal fastcc void @git_default_sparse_config(ptr noundef %0, ptr noundef %1) unnamed_addr #0 {
  %3 = tail call i32 @strcmp(ptr noundef nonnull dereferenceable(1) %0, ptr noundef nonnull dereferenceable(36) @.str.196) #29
  %.not = icmp eq i32 %3, 0
  br i1 %.not, label %4, label %9

4:                                                ; preds = %2
  %5 = tail call i32 @git_parse_maybe_bool(ptr noundef %1) #30
  %6 = icmp slt i32 %5, 0
  br i1 %6, label %7, label %git_config_bool.exit

7:                                                ; preds = %4
  %8 = tail call fastcc ptr @_(ptr noundef nonnull @.str.17)
  tail call void (ptr, ...) @die(ptr noundef %8, ptr noundef %1, ptr noundef nonnull %0) #31
  unreachable

git_config_bool.exit:                             ; preds = %4
  store i32 %5, ptr @sparse_expect_files_outside_of_patterns, align 4, !tbaa !14
  br label %9

9:                                                ; preds = %2, %git_config_bool.exit
  ret void
}